; Function Attrs: inlinehint mustprogress nounwind uwtable
define internal void @_ZN8QuantLib12_GLOBAL__N_115FdmOUInnerValueD0Ev(ptr noundef nonnull align 8 dereferenceable(48) %this) unnamed_addr #4 align 2 personality ptr @__gxx_personality_v0 {
entry:
  store ptr getelementptr inbounds inrange(-16, 32) (i8, ptr @_ZTVN8QuantLib12_GLOBAL__N_115FdmOUInnerValueE, i64 16), ptr %this, align 8, !tbaa !35
  %pn.i.i = getelementptr inbounds nuw i8, ptr %this, i64 32
  %0 = load ptr, ptr %pn.i.i, align 8, !tbaa !37
  %cmp.not.i.i.i = icmp eq ptr %0, null
  br i1 %cmp.not.i.i.i, label %_ZN5boost10shared_ptrIN8QuantLib9FdmMesherEED2Ev.exit.i, label %if.then.i.i.i

if.then.i.i.i:                                    ; preds = %entry
  %use_count_.i.i.i.i = getelementptr inbounds nuw i8, ptr %0, i64 8
  %1 = atomicrmw sub ptr %use_count_.i.i.i.i, i32 1 acq_rel, align 4
  %cmp.i.i.i.i = icmp eq i32 %1, 1
  br i1 %cmp.i.i.i.i, label %if.then.i.i.i.i, label %_ZN5boost10shared_ptrIN8QuantLib9FdmMesherEED2Ev.exit.i

if.then.i.i.i.i:                                  ; preds = %if.then.i.i.i
  %vtable.i.i.i.i = load ptr, ptr %0, align 8, !tbaa !35
  %vfn.i.i.i.i = getelementptr inbounds i8, ptr %vtable.i.i.i.i, i64 16
  %2 = load ptr, ptr %vfn.i.i.i.i, align 8
  invoke void %2(ptr noundef nonnull align 8 dereferenceable(16) %0)
          to label %.noexc.i.i.i unwind label %terminate.lpad.i.i.i

.noexc.i.i.i:                                     ; preds = %if.then.i.i.i.i
  %weak_count_.i.i.i.i.i = getelementptr inbounds nuw i8, ptr %0, i64 12
  %3 = atomicrmw sub ptr %weak_count_.i.i.i.i.i, i32 1 acq_rel, align 4
  %cmp.i.i.i.i.i = icmp eq i32 %3, 1
  br i1 %cmp.i.i.i.i.i, label %if.then.i.i.i.i.i, label %_ZN5boost10shared_ptrIN8QuantLib9FdmMesherEED2Ev.exit.i

if.then.i.i.i.i.i:                                ; preds = %.noexc.i.i.i
  %vtable.i.i.i.i.i = load ptr, ptr %0, align 8, !tbaa !35
  %vfn.i.i.i.i.i = getelementptr inbounds i8, ptr %vtable.i.i.i.i.i, i64 24
  %4 = load ptr, ptr %vfn.i.i.i.i.i, align 8
  invoke void %4(ptr noundef nonnull align 8 dereferenceable(16) %0)
          to label %_ZN5boost10shared_ptrIN8QuantLib9FdmMesherEED2Ev.exit.i unwind label %terminate.lpad.i.i.i

terminate.lpad.i.i.i:                             ; preds = %if.then.i.i.i.i.i, %if.then.i.i.i.i
  %5 = landingpad { ptr, i32 }
          catch ptr null
  %6 = extractvalue { ptr, i32 } %5, 0
  tail call void @__clang_call_terminate(ptr %6) #26
  unreachable

_ZN5boost10shared_ptrIN8QuantLib9FdmMesherEED2Ev.exit.i: ; preds = %if.then.i.i.i.i.i, %.noexc.i.i.i, %if.then.i.i.i, %entry
  %pn.i1.i = getelementptr inbounds nuw i8, ptr %this, i64 16
  %7 = load ptr, ptr %pn.i1.i, align 8, !tbaa !37
  %cmp.not.i.i2.i = icmp eq ptr %7, null
  br i1 %cmp.not.i.i2.i, label %_ZN8QuantLib12_GLOBAL__N_115FdmOUInnerValueD2Ev.exit, label %if.then.i.i3.i

if.then.i.i3.i:                                   ; preds = %_ZN5boost10shared_ptrIN8QuantLib9FdmMesherEED2Ev.exit.i
  %use_count_.i.i.i4.i = getelementptr inbounds nuw i8, ptr %7, i64 8
  %8 = atomicrmw sub ptr %use_count_.i.i.i4.i, i32 1 acq_rel, align 4
  %cmp.i.i.i5.i = icmp eq i32 %8, 1
  br i1 %cmp.i.i.i5.i, label %if.then.i.i.i6.i, label %_ZN8QuantLib12_GLOBAL__N_115FdmOUInnerValueD2Ev.exit

if.then.i.i.i6.i:                                 ; preds = %if.then.i.i3.i
  %vtable.i.i.i7.i = load ptr, ptr %7, align 8, !tbaa !35
  %vfn.i.i.i8.i = getelementptr inbounds i8, ptr %vtable.i.i.i7.i, i64 16
  %9 = load ptr, ptr %vfn.i.i.i8.i, align 8
  invoke void %9(ptr noundef nonnull align 8 dereferenceable(16) %7)
          to label %.noexc.i.i10.i unwind label %terminate.lpad.i.i9.i

.noexc.i.i10.i:                                   ; preds = %if.then.i.i.i6.i
  %weak_count_.i.i.i.i11.i = getelementptr inbounds nuw i8, ptr %7, i64 12
  %10 = atomicrmw sub ptr %weak_count_.i.i.i.i11.i, i32 1 acq_rel, align 4
  %cmp.i.i.i.i12.i = icmp eq i32 %10, 1
  br i1 %cmp.i.i.i.i12.i, label %if.then.i.i.i.i13.i, label %_ZN8QuantLib12_GLOBAL__N_115FdmOUInnerValueD2Ev.exit

if.then.i.i.i.i13.i:                              ; preds = %.noexc.i.i10.i
  %vtable.i.i.i.i14.i = load ptr, ptr %7, align 8, !tbaa !35
  %vfn.i.i.i.i15.i = getelementptr inbounds i8, ptr %vtable.i.i.i.i14.i, i64 24
  %11 = load ptr, ptr %vfn.i.i.i.i15.i, align 8
  invoke void %11(ptr noundef nonnull align 8 dereferenceable(16) %7)
          to label %_ZN8QuantLib12_GLOBAL__N_115FdmOUInnerValueD2Ev.exit unwind label %terminate.lpad.i.i9.i

terminate.lpad.i.i9.i:                            ; preds = %if.then.i.i.i.i13.i, %if.then.i.i.i6.i
  %12 = landingpad { ptr, i32 }
          catch ptr null
  %13 = extractvalue { ptr, i32 } %12, 0
  tail call void @__clang_call_terminate(ptr %13) #26
  unreachable

_ZN8QuantLib12_GLOBAL__N_115FdmOUInnerValueD2Ev.exit: ; preds = %_ZN5boost10shared_ptrIN8QuantLib9FdmMesherEED2Ev.exit.i, %if.then.i.i3.i, %.noexc.i.i10.i, %if.then.i.i.i.i13.i
  tail call void @_ZdlPvm(ptr noundef nonnull %this, i64 noundef 48) #30
  ret void
}